target datalayout = "e-m:e-p270:32:32-p271:32:32-p272:64:64-i64:64-i128:128-f80:128-n8:16:32:64-S128"
target triple = "x86_64-pc-linux-gnu"

%struct.H5VL_dataset_get_args_t = type { i32, %union.anon.1 }
%union.anon.1 = type { %struct.anon }
%struct.anon = type { i64 }
%struct.anon.3 = type { i64 }
%struct.anon.4 = type { ptr }
%struct.anon.6 = type { i64 }
%struct.anon.2 = type { i64 }
%struct.anon.5 = type { ptr }

@.str = private unnamed_addr constant [112 x i8] c"generated/home/dtcxzyw/WorkSpace/Projects/compilers/llvm-opt-benchmark/bench/hdf5/hdf5/src/H5VLnative_dataset.c\00", align 1
@H5E_DATASET_g = external global i64, align 8
@H5E_CANTINIT_g = external global i64, align 8
@H5E_CANTGET_g = external global i64, align 8
@__func__.H5VL__native_dataset_get = private unnamed_addr constant [25 x i8] c"H5VL__native_dataset_get\00", align 1
@.str.13 = private unnamed_addr constant [30 x i8] c"can't get space ID of dataset\00", align 1
@.str.14 = private unnamed_addr constant [27 x i8] c"unable to get space status\00", align 1
@.str.15 = private unnamed_addr constant [33 x i8] c"can't get datatype ID of dataset\00", align 1
@.str.16 = private unnamed_addr constant [45 x i8] c"can't get creation property list for dataset\00", align 1
@.str.17 = private unnamed_addr constant [43 x i8] c"can't get access property list for dataset\00", align 1
@.str.18 = private unnamed_addr constant [36 x i8] c"can't get size of dataset's storage\00", align 1
@H5E_VOL_g = external global i64, align 8
@.str.19 = private unnamed_addr constant [48 x i8] c"can't get this type of information from dataset\00", align 1

; Function Attrs: nounwind uwtable
define i32 @H5VL__native_dataset_get(ptr noundef %0, ptr noundef %1, i64 noundef %2, ptr noundef %3) #0 {
  %5 = alloca ptr, align 8
  %6 = alloca ptr, align 8
  %7 = alloca i64, align 8
  %8 = alloca ptr, align 8
  %9 = alloca ptr, align 8
  %10 = alloca i32, align 4
  %11 = alloca i8, align 1
  store ptr %0, ptr %5, align 8, !tbaa !3
  store ptr %1, ptr %6, align 8, !tbaa !92
  store i64 %2, ptr %7, align 8, !tbaa !11
  store ptr %3, ptr %8, align 8, !tbaa !3
  call void @llvm.lifetime.start.p0(i64 8, ptr %9) #6
  %12 = load ptr, ptr %5, align 8, !tbaa !3
  store ptr %12, ptr %9, align 8, !tbaa !13
  call void @llvm.lifetime.start.p0(i64 4, ptr %10) #6
  store i32 0, ptr %10, align 4, !tbaa !36
  call void @llvm.lifetime.start.p0(i64 1, ptr %11) #6
  store i8 0, ptr %11, align 1, !tbaa !15
  %13 = load ptr, ptr %6, align 8, !tbaa !92
  %14 = getelementptr inbounds nuw %struct.H5VL_dataset_get_args_t, ptr %13, i32 0, i32 0
  %15 = load i32, ptr %14, align 8, !tbaa !94
  switch i32 %15, label %180 [
    i32 2, label %16
    i32 3, label %43
    i32 5, label %71
    i32 1, label %98
    i32 0, label %125
    i32 4, label %152
  ]

16:                                               ; preds = %4
  %17 = load ptr, ptr %9, align 8, !tbaa !13
  %18 = call i64 @H5D__get_space(ptr noundef %17)
  %19 = load ptr, ptr %6, align 8, !tbaa !92
  %20 = getelementptr inbounds nuw %struct.H5VL_dataset_get_args_t, ptr %19, i32 0, i32 1
  %21 = getelementptr inbounds nuw %struct.anon.3, ptr %20, i32 0, i32 0
  store i64 %18, ptr %21, align 8, !tbaa !88
  %22 = icmp slt i64 %18, 0
  br i1 %22, label %23, label %42

23:                                               ; preds = %16
  br label %24

24:                                               ; preds = %23
  br label %25

25:                                               ; preds = %24
  br label %26

26:                                               ; preds = %25
  %27 = load i64, ptr @H5E_DATASET_g, align 8, !tbaa !11
  %28 = load i64, ptr @H5E_CANTGET_g, align 8, !tbaa !11
  %29 = call i32 (ptr, ptr, i32, i64, i64, ptr, ...) @H5E_printf_stack(ptr noundef @.str, ptr noundef @__func__.H5VL__native_dataset_get, i32 noundef 456, i64 noundef %27, i64 noundef %28, ptr noundef @.str.13)
  br label %30

30:                                               ; preds = %26
  br label %31

31:                                               ; preds = %30
  store i8 1, ptr %11, align 1, !tbaa !15
  %32 = load i8, ptr %11, align 1, !tbaa !15, !range !20, !noundef !21
  %33 = trunc i8 %32 to i1
  %34 = zext i1 %33 to i8
  store i8 %34, ptr %11, align 1, !tbaa !15
  br label %35

35:                                               ; preds = %31
  br label %36

36:                                               ; preds = %35
  br label %37

37:                                               ; preds = %36
  store i32 -1, ptr %10, align 4, !tbaa !36
  br label %200

38:                                               ; No predecessors!
  br label %39

39:                                               ; preds = %38
  br label %40

40:                                               ; preds = %39
  br label %41

41:                                               ; preds = %40
  br label %42

42:                                               ; preds = %41, %16
  br label %199

43:                                               ; preds = %4
  %44 = load ptr, ptr %9, align 8, !tbaa !13
  %45 = load ptr, ptr %6, align 8, !tbaa !92
  %46 = getelementptr inbounds nuw %struct.H5VL_dataset_get_args_t, ptr %45, i32 0, i32 1
  %47 = getelementptr inbounds nuw %struct.anon.4, ptr %46, i32 0, i32 0
  %48 = load ptr, ptr %47, align 8, !tbaa !88
  %49 = call i32 @H5D__get_space_status(ptr noundef %44, ptr noundef %48)
  %50 = icmp slt i32 %49, 0
  br i1 %50, label %51, label %70

51:                                               ; preds = %43
  br label %52

52:                                               ; preds = %51
  br label %53

53:                                               ; preds = %52
  br label %54

54:                                               ; preds = %53
  %55 = load i64, ptr @H5E_DATASET_g, align 8, !tbaa !11
  %56 = load i64, ptr @H5E_CANTINIT_g, align 8, !tbaa !11
  %57 = call i32 (ptr, ptr, i32, i64, i64, ptr, ...) @H5E_printf_stack(ptr noundef @.str, ptr noundef @__func__.H5VL__native_dataset_get, i32 noundef 464, i64 noundef %55, i64 noundef %56, ptr noundef @.str.14)
  br label %58

58:                                               ; preds = %54
  br label %59

59:                                               ; preds = %58
  store i8 1, ptr %11, align 1, !tbaa !15
  %60 = load i8, ptr %11, align 1, !tbaa !15, !range !20, !noundef !21
  %61 = trunc i8 %60 to i1
  %62 = zext i1 %61 to i8
  store i8 %62, ptr %11, align 1, !tbaa !15
  br label %63

63:                                               ; preds = %59
  br label %64

64:                                               ; preds = %63
  br label %65

65:                                               ; preds = %64
  store i32 -1, ptr %10, align 4, !tbaa !36
  br label %200

66:                                               ; No predecessors!
  br label %67

67:                                               ; preds = %66
  br label %68

68:                                               ; preds = %67
  br label %69

69:                                               ; preds = %68
  br label %70

70:                                               ; preds = %69, %43
  br label %199

71:                                               ; preds = %4
  %72 = load ptr, ptr %9, align 8, !tbaa !13
  %73 = call i64 @H5D__get_type(ptr noundef %72)
  %74 = load ptr, ptr %6, align 8, !tbaa !92
  %75 = getelementptr inbounds nuw %struct.H5VL_dataset_get_args_t, ptr %74, i32 0, i32 1
  %76 = getelementptr inbounds nuw %struct.anon.6, ptr %75, i32 0, i32 0
  store i64 %73, ptr %76, align 8, !tbaa !88
  %77 = icmp slt i64 %73, 0
  br i1 %77, label %78, label %97

78:                                               ; preds = %71
  br label %79

79:                                               ; preds = %78
  br label %80

80:                                               ; preds = %79
  br label %81

81:                                               ; preds = %80
  %82 = load i64, ptr @H5E_DATASET_g, align 8, !tbaa !11
  %83 = load i64, ptr @H5E_CANTGET_g, align 8, !tbaa !11
  %84 = call i32 (ptr, ptr, i32, i64, i64, ptr, ...) @H5E_printf_stack(ptr noundef @.str, ptr noundef @__func__.H5VL__native_dataset_get, i32 noundef 472, i64 noundef %82, i64 noundef %83, ptr noundef @.str.15)
  br label %85

85:                                               ; preds = %81
  br label %86

86:                                               ; preds = %85
  store i8 1, ptr %11, align 1, !tbaa !15
  %87 = load i8, ptr %11, align 1, !tbaa !15, !range !20, !noundef !21
  %88 = trunc i8 %87 to i1
  %89 = zext i1 %88 to i8
  store i8 %89, ptr %11, align 1, !tbaa !15
  br label %90

90:                                               ; preds = %86
  br label %91

91:                                               ; preds = %90
  br label %92

92:                                               ; preds = %91
  store i32 -1, ptr %10, align 4, !tbaa !36
  br label %200

93:                                               ; No predecessors!
  br label %94

94:                                               ; preds = %93
  br label %95

95:                                               ; preds = %94
  br label %96

96:                                               ; preds = %95
  br label %97

97:                                               ; preds = %96, %71
  br label %199

98:                                               ; preds = %4
  %99 = load ptr, ptr %9, align 8, !tbaa !13
  %100 = call i64 @H5D_get_create_plist(ptr noundef %99)
  %101 = load ptr, ptr %6, align 8, !tbaa !92
  %102 = getelementptr inbounds nuw %struct.H5VL_dataset_get_args_t, ptr %101, i32 0, i32 1
  %103 = getelementptr inbounds nuw %struct.anon.2, ptr %102, i32 0, i32 0
  store i64 %100, ptr %103, align 8, !tbaa !88
  %104 = icmp slt i64 %100, 0
  br i1 %104, label %105, label %124

105:                                              ; preds = %98
  br label %106

106:                                              ; preds = %105
  br label %107

107:                                              ; preds = %106
  br label %108

108:                                              ; preds = %107
  %109 = load i64, ptr @H5E_DATASET_g, align 8, !tbaa !11
  %110 = load i64, ptr @H5E_CANTGET_g, align 8, !tbaa !11
  %111 = call i32 (ptr, ptr, i32, i64, i64, ptr, ...) @H5E_printf_stack(ptr noundef @.str, ptr noundef @__func__.H5VL__native_dataset_get, i32 noundef 480, i64 noundef %109, i64 noundef %110, ptr noundef @.str.16)
  br label %112

112:                                              ; preds = %108
  br label %113

113:                                              ; preds = %112
  store i8 1, ptr %11, align 1, !tbaa !15
  %114 = load i8, ptr %11, align 1, !tbaa !15, !range !20, !noundef !21
  %115 = trunc i8 %114 to i1
  %116 = zext i1 %115 to i8
  store i8 %116, ptr %11, align 1, !tbaa !15
  br label %117

117:                                              ; preds = %113
  br label %118

118:                                              ; preds = %117
  br label %119

119:                                              ; preds = %118
  store i32 -1, ptr %10, align 4, !tbaa !36
  br label %200

120:                                              ; No predecessors!
  br label %121

121:                                              ; preds = %120
  br label %122

122:                                              ; preds = %121
  br label %123

123:                                              ; preds = %122
  br label %124

124:                                              ; preds = %123, %98
  br label %199

125:                                              ; preds = %4
  %126 = load ptr, ptr %9, align 8, !tbaa !13
  %127 = call i64 @H5D_get_access_plist(ptr noundef %126)
  %128 = load ptr, ptr %6, align 8, !tbaa !92
  %129 = getelementptr inbounds nuw %struct.H5VL_dataset_get_args_t, ptr %128, i32 0, i32 1
  %130 = getelementptr inbounds nuw %struct.anon, ptr %129, i32 0, i32 0
  store i64 %127, ptr %130, align 8, !tbaa !88
  %131 = icmp slt i64 %127, 0
  br i1 %131, label %132, label %151

132:                                              ; preds = %125
  br label %133

133:                                              ; preds = %132
  br label %134

134:                                              ; preds = %133
  br label %135

135:                                              ; preds = %134
  %136 = load i64, ptr @H5E_DATASET_g, align 8, !tbaa !11
  %137 = load i64, ptr @H5E_CANTGET_g, align 8, !tbaa !11
  %138 = call i32 (ptr, ptr, i32, i64, i64, ptr, ...) @H5E_printf_stack(ptr noundef @.str, ptr noundef @__func__.H5VL__native_dataset_get, i32 noundef 488, i64 noundef %136, i64 noundef %137, ptr noundef @.str.17)
  br label %139

139:                                              ; preds = %135
  br label %140

140:                                              ; preds = %139
  store i8 1, ptr %11, align 1, !tbaa !15
  %141 = load i8, ptr %11, align 1, !tbaa !15, !range !20, !noundef !21
  %142 = trunc i8 %141 to i1
  %143 = zext i1 %142 to i8
  store i8 %143, ptr %11, align 1, !tbaa !15
  br label %144

144:                                              ; preds = %140
  br label %145

145:                                              ; preds = %144
  br label %146

146:                                              ; preds = %145
  store i32 -1, ptr %10, align 4, !tbaa !36
  br label %200

147:                                              ; No predecessors!
  br label %148

148:                                              ; preds = %147
  br label %149

149:                                              ; preds = %148
  br label %150

150:                                              ; preds = %149
  br label %151

151:                                              ; preds = %150, %125
  br label %199

152:                                              ; preds = %4
  %153 = load ptr, ptr %9, align 8, !tbaa !13
  %154 = load ptr, ptr %6, align 8, !tbaa !92
  %155 = getelementptr inbounds nuw %struct.H5VL_dataset_get_args_t, ptr %154, i32 0, i32 1
  %156 = getelementptr inbounds nuw %struct.anon.5, ptr %155, i32 0, i32 0
  %157 = load ptr, ptr %156, align 8, !tbaa !88
  %158 = call i32 @H5D__get_storage_size(ptr noundef %153, ptr noundef %157)
  %159 = icmp slt i32 %158, 0
  br i1 %159, label %160, label %179

160:                                              ; preds = %152
  br label %161

161:                                              ; preds = %160
  br label %162

162:                                              ; preds = %161
  br label %163

163:                                              ; preds = %162
  %164 = load i64, ptr @H5E_DATASET_g, align 8, !tbaa !11
  %165 = load i64, ptr @H5E_CANTGET_g, align 8, !tbaa !11
  %166 = call i32 (ptr, ptr, i32, i64, i64, ptr, ...) @H5E_printf_stack(ptr noundef @.str, ptr noundef @__func__.H5VL__native_dataset_get, i32 noundef 496, i64 noundef %164, i64 noundef %165, ptr noundef @.str.18)
  br label %167

167:                                              ; preds = %163
  br label %168

168:                                              ; preds = %167
  store i8 1, ptr %11, align 1, !tbaa !15
  %169 = load i8, ptr %11, align 1, !tbaa !15, !range !20, !noundef !21
  %170 = trunc i8 %169 to i1
  %171 = zext i1 %170 to i8
  store i8 %171, ptr %11, align 1, !tbaa !15
  br label %172

172:                                              ; preds = %168
  br label %173

173:                                              ; preds = %172
  br label %174

174:                                              ; preds = %173
  store i32 -1, ptr %10, align 4, !tbaa !36
  br label %200

175:                                              ; No predecessors!
  br label %176

176:                                              ; preds = %175
  br label %177

177:                                              ; preds = %176
  br label %178

178:                                              ; preds = %177
  br label %179

179:                                              ; preds = %178, %152
  br label %199

180:                                              ; preds = %4
  br label %181

181:                                              ; preds = %180
  br label %182

182:                                              ; preds = %181
  br label %183

183:                                              ; preds = %182
  %184 = load i64, ptr @H5E_VOL_g, align 8, !tbaa !11
  %185 = load i64, ptr @H5E_CANTGET_g, align 8, !tbaa !11
  %186 = call i32 (ptr, ptr, i32, i64, i64, ptr, ...) @H5E_printf_stack(ptr noundef @.str, ptr noundef @__func__.H5VL__native_dataset_get, i32 noundef 501, i64 noundef %184, i64 noundef %185, ptr noundef @.str.19)
  br label %187

187:                                              ; preds = %183
  br label %188

188:                                              ; preds = %187
  store i8 1, ptr %11, align 1, !tbaa !15
  %189 = load i8, ptr %11, align 1, !tbaa !15, !range !20, !noundef !21
  %190 = trunc i8 %189 to i1
  %191 = zext i1 %190 to i8
  store i8 %191, ptr %11, align 1, !tbaa !15
  br label %192

192:                                              ; preds = %188
  br label %193

193:                                              ; preds = %192
  br label %194

194:                                              ; preds = %193
  store i32 -1, ptr %10, align 4, !tbaa !36
  br label %200

195:                                              ; No predecessors!
  br label %196

196:                                              ; preds = %195
  br label %197

197:                                              ; preds = %196
  br label %198

198:                                              ; preds = %197
  br label %199

199:                                              ; preds = %198, %179, %151, %124, %97, %70, %42
  br label %200

200:                                              ; preds = %199, %194, %174, %146, %119, %92, %65, %37
  %201 = load i32, ptr %10, align 4, !tbaa !36
  call void @llvm.lifetime.end.p0(i64 1, ptr %11) #6
  call void @llvm.lifetime.end.p0(i64 4, ptr %10) #6
  call void @llvm.lifetime.end.p0(i64 8, ptr %9) #6
  ret i32 %201
}