; Function Attrs: nounwind uwtable
define range(i32 -1, 1) i32 @H5VL__native_dataset_get(ptr noundef %0, ptr noundef captures(none) %1, i64 noundef %2, ptr noundef readnone captures(none) %3) local_unnamed_addr #0 {
  %5 = load i32, ptr %1, align 8, !tbaa !70
  switch i32 %5, label %56 [
    i32 2, label %6
    i32 3, label %14
    i32 5, label %23
    i32 1, label %31
    i32 0, label %39
    i32 4, label %47
  ]

6:                                                ; preds = %4
  %7 = tail call i64 @H5D__get_space(ptr noundef %0) #5
  %8 = getelementptr inbounds nuw i8, ptr %1, i64 8
  store i64 %7, ptr %8, align 8, !tbaa !66
  %9 = icmp slt i64 %7, 0
  br i1 %9, label %10, label %60

10:                                               ; preds = %6
  %11 = load i64, ptr @H5E_DATASET_g, align 8, !tbaa !8
  %12 = load i64, ptr @H5E_CANTGET_g, align 8, !tbaa !8
  %13 = tail call i32 (ptr, ptr, i32, i64, i64, ptr, ...) @H5E_printf_stack(ptr noundef nonnull @.str, ptr noundef nonnull @__func__.H5VL__native_dataset_get, i32 noundef 456, i64 noundef %11, i64 noundef %12, ptr noundef nonnull @.str.13) #5
  br label %60

14:                                               ; preds = %4
  %15 = getelementptr inbounds nuw i8, ptr %1, i64 8
  %16 = load ptr, ptr %15, align 8, !tbaa !66
  %17 = tail call i32 @H5D__get_space_status(ptr noundef %0, ptr noundef %16) #5
  %18 = icmp slt i32 %17, 0
  br i1 %18, label %19, label %60

19:                                               ; preds = %14
  %20 = load i64, ptr @H5E_DATASET_g, align 8, !tbaa !8
  %21 = load i64, ptr @H5E_CANTINIT_g, align 8, !tbaa !8
  %22 = tail call i32 (ptr, ptr, i32, i64, i64, ptr, ...) @H5E_printf_stack(ptr noundef nonnull @.str, ptr noundef nonnull @__func__.H5VL__native_dataset_get, i32 noundef 464, i64 noundef %20, i64 noundef %21, ptr noundef nonnull @.str.14) #5
  br label %60

23:                                               ; preds = %4
  %24 = tail call i64 @H5D__get_type(ptr noundef %0) #5
  %25 = getelementptr inbounds nuw i8, ptr %1, i64 8
  store i64 %24, ptr %25, align 8, !tbaa !66
  %26 = icmp slt i64 %24, 0
  br i1 %26, label %27, label %60

27:                                               ; preds = %23
  %28 = load i64, ptr @H5E_DATASET_g, align 8, !tbaa !8
  %29 = load i64, ptr @H5E_CANTGET_g, align 8, !tbaa !8
  %30 = tail call i32 (ptr, ptr, i32, i64, i64, ptr, ...) @H5E_printf_stack(ptr noundef nonnull @.str, ptr noundef nonnull @__func__.H5VL__native_dataset_get, i32 noundef 472, i64 noundef %28, i64 noundef %29, ptr noundef nonnull @.str.15) #5
  br label %60

31:                                               ; preds = %4
  %32 = tail call i64 @H5D_get_create_plist(ptr noundef %0) #5
  %33 = getelementptr inbounds nuw i8, ptr %1, i64 8
  store i64 %32, ptr %33, align 8, !tbaa !66
  %34 = icmp slt i64 %32, 0
  br i1 %34, label %35, label %60

35:                                               ; preds = %31
  %36 = load i64, ptr @H5E_DATASET_g, align 8, !tbaa !8
  %37 = load i64, ptr @H5E_CANTGET_g, align 8, !tbaa !8
  %38 = tail call i32 (ptr, ptr, i32, i64, i64, ptr, ...) @H5E_printf_stack(ptr noundef nonnull @.str, ptr noundef nonnull @__func__.H5VL__native_dataset_get, i32 noundef 480, i64 noundef %36, i64 noundef %37, ptr noundef nonnull @.str.16) #5
  br label %60

39:                                               ; preds = %4
  %40 = tail call i64 @H5D_get_access_plist(ptr noundef %0) #5
  %41 = getelementptr inbounds nuw i8, ptr %1, i64 8
  store i64 %40, ptr %41, align 8, !tbaa !66
  %42 = icmp slt i64 %40, 0
  br i1 %42, label %43, label %60

43:                                               ; preds = %39
  %44 = load i64, ptr @H5E_DATASET_g, align 8, !tbaa !8
  %45 = load i64, ptr @H5E_CANTGET_g, align 8, !tbaa !8
  %46 = tail call i32 (ptr, ptr, i32, i64, i64, ptr, ...) @H5E_printf_stack(ptr noundef nonnull @.str, ptr noundef nonnull @__func__.H5VL__native_dataset_get, i32 noundef 488, i64 noundef %44, i64 noundef %45, ptr noundef nonnull @.str.17) #5
  br label %60

47:                                               ; preds = %4
  %48 = getelementptr inbounds nuw i8, ptr %1, i64 8
  %49 = load ptr, ptr %48, align 8, !tbaa !66
  %50 = tail call i32 @H5D__get_storage_size(ptr noundef %0, ptr noundef %49) #5
  %51 = icmp slt i32 %50, 0
  br i1 %51, label %52, label %60

52:                                               ; preds = %47
  %53 = load i64, ptr @H5E_DATASET_g, align 8, !tbaa !8
  %54 = load i64, ptr @H5E_CANTGET_g, align 8, !tbaa !8
  %55 = tail call i32 (ptr, ptr, i32, i64, i64, ptr, ...) @H5E_printf_stack(ptr noundef nonnull @.str, ptr noundef nonnull @__func__.H5VL__native_dataset_get, i32 noundef 496, i64 noundef %53, i64 noundef %54, ptr noundef nonnull @.str.18) #5
  br label %60

56:                                               ; preds = %4
  %57 = load i64, ptr @H5E_VOL_g, align 8, !tbaa !8
  %58 = load i64, ptr @H5E_CANTGET_g, align 8, !tbaa !8
  %59 = tail call i32 (ptr, ptr, i32, i64, i64, ptr, ...) @H5E_printf_stack(ptr noundef nonnull @.str, ptr noundef nonnull @__func__.H5VL__native_dataset_get, i32 noundef 501, i64 noundef %57, i64 noundef %58, ptr noundef nonnull @.str.19) #5
  br label %60

60:                                               ; preds = %6, %14, %23, %31, %39, %47, %56, %52, %43, %35, %27, %19, %10
  %.0 = phi i32 [ -1, %56 ], [ -1, %52 ], [ 0, %47 ], [ -1, %43 ], [ 0, %39 ], [ -1, %35 ], [ 0, %31 ], [ -1, %27 ], [ 0, %23 ], [ -1, %19 ], [ 0, %14 ], [ -1, %10 ], [ 0, %6 ]
  ret i32 %.0
}